; Function Attrs: nounwind uwtable
define dso_local noundef i32 @errcode_for_socket_access() local_unnamed_addr #3 {
  %1 = load i32, ptr @errordata_stack_depth, align 4
  %2 = sext i32 %1 to i64
  %3 = getelementptr inbounds [5 x %struct.ErrorData], ptr @errordata, i64 0, i64 %2
  %4 = icmp slt i32 %1, 0
  br i1 %4, label %5, label %8

5:                                                ; preds = %0
  store i32 -1, ptr @errordata_stack_depth, align 4
  %6 = tail call zeroext i1 @errstart_cold(i32 noundef 21, ptr noundef null) #33
  tail call void @llvm.assume(i1 %6)
  %7 = tail call i32 (ptr, ...) @errmsg_internal(ptr noundef nonnull @.str.1)
  tail call void @errfinish(ptr noundef nonnull @.str.2, i32 noundef 958, ptr noundef nonnull @__func__.errcode_for_socket_access)
  unreachable

8:                                                ; preds = %0
  %9 = getelementptr inbounds nuw i8, ptr %3, i64 168
  %10 = load i32, ptr %9, align 8
  switch i32 %10, label %11 [
    i32 32, label %12
    i32 104, label %12
    i32 103, label %12
    i32 112, label %12
    i32 113, label %12
    i32 100, label %12
    i32 102, label %12
    i32 101, label %12
    i32 110, label %12
  ]

11:                                               ; preds = %8
  br label %12

12:                                               ; preds = %8, %8, %8, %8, %8, %8, %8, %8, %8, %11
  %.sink = phi i32 [ 2600, %11 ], [ 100663808, %8 ], [ 100663808, %8 ], [ 100663808, %8 ], [ 100663808, %8 ], [ 100663808, %8 ], [ 100663808, %8 ], [ 100663808, %8 ], [ 100663808, %8 ], [ 100663808, %8 ]
  %13 = getelementptr inbounds nuw i8, ptr %3, i64 48
  store i32 %.sink, ptr %13, align 8
  ret i32 0
}